; Function Attrs: nounwind uwtable
define internal range(i32 0, 2) i32 @test_handle_request() #0 {
  %1 = tail call noalias ptr @CRYPTO_zalloc(i64 noundef 32, ptr noundef nonnull @.str.14, i32 noundef 35) #4
  %2 = tail call i32 @test_ptr(ptr noundef nonnull @.str.14, i32 noundef 35, ptr noundef nonnull @.str.21, ptr noundef %1) #4
  %.not.i = icmp eq i32 %2, 0
  br i1 %.not.i, label %set_up.exit.thread, label %3

3:                                                ; preds = %0
  store ptr @.str.20, ptr %1, align 8, !tbaa !13
  %4 = load ptr, ptr @libctx, align 8, !tbaa !11
  %5 = tail call ptr @OSSL_CMP_SRV_CTX_new(ptr noundef %4, ptr noundef null) #4
  %6 = getelementptr inbounds nuw i8, ptr %1, i64 16
  store ptr %5, ptr %6, align 8, !tbaa !18
  %7 = tail call i32 @test_ptr(ptr noundef nonnull @.str.14, i32 noundef 38, ptr noundef nonnull @.str.22, ptr noundef %5) #4
  %.not6.i = icmp eq i32 %7, 0
  br i1 %.not6.i, label %set_up.exit.thread.sink.split, label %set_up.exit

set_up.exit:                                      ; preds = %3
  %8 = load ptr, ptr @request, align 8, !tbaa !4
  %9 = getelementptr inbounds nuw i8, ptr %1, i64 24
  store ptr %8, ptr %9, align 8, !tbaa !19
  %10 = getelementptr inbounds nuw i8, ptr %1, i64 8
  store i32 1, ptr %10, align 8, !tbaa !20
  %11 = load ptr, ptr %6, align 8, !tbaa !18
  %12 = load ptr, ptr @libctx, align 8, !tbaa !11
  %13 = tail call ptr @OSSL_CMP_CTX_new(ptr noundef %12, ptr noundef null) #4
  %14 = tail call i32 @test_ptr(ptr noundef nonnull @.str.14, i32 noundef 72, ptr noundef nonnull @.str.24, ptr noundef %13) #4
  %.not.i9 = icmp eq i32 %14, 0
  br i1 %.not.i9, label %execute_test_handle_request.exit, label %15

15:                                               ; preds = %set_up.exit
  %16 = tail call i32 @OSSL_CMP_CTX_set_transfer_cb_arg(ptr noundef %13, ptr noundef %11) #4
  %17 = icmp ne i32 %16, 0
  %18 = zext i1 %17 to i32
  %19 = tail call i32 @test_true(ptr noundef nonnull @.str.14, i32 noundef 73, ptr noundef nonnull @.str.25, i32 noundef %18) #4
  %.not24.i = icmp eq i32 %19, 0
  br i1 %.not24.i, label %execute_test_handle_request.exit, label %20

20:                                               ; preds = %15
  %21 = tail call i32 @OSSL_CMP_SRV_CTX_init(ptr noundef %11, ptr noundef nonnull @.str.23, ptr noundef nonnull @process_cert_request, ptr noundef null, ptr noundef null, ptr noundef null, ptr noundef null, ptr noundef null) #4
  %22 = icmp ne i32 %21, 0
  %23 = zext i1 %22 to i32
  %24 = tail call i32 @test_true(ptr noundef nonnull @.str.14, i32 noundef 78, ptr noundef nonnull @.str.26, i32 noundef %23) #4
  %.not25.i = icmp eq i32 %24, 0
  br i1 %.not25.i, label %execute_test_handle_request.exit, label %25

25:                                               ; preds = %20
  %26 = tail call i32 @OSSL_CMP_SRV_CTX_init_trans(ptr noundef %11, ptr noundef null, ptr noundef null) #4
  %27 = icmp ne i32 %26, 0
  %28 = zext i1 %27 to i32
  %29 = tail call i32 @test_true(ptr noundef nonnull @.str.14, i32 noundef 79, ptr noundef nonnull @.str.27, i32 noundef %28) #4
  %.not26.i = icmp eq i32 %29, 0
  br i1 %.not26.i, label %execute_test_handle_request.exit, label %30

30:                                               ; preds = %25
  %31 = tail call ptr @OSSL_CMP_SRV_CTX_get0_custom_ctx(ptr noundef %11) #4
  %32 = tail call i32 @test_ptr(ptr noundef nonnull @.str.14, i32 noundef 80, ptr noundef nonnull @.str.28, ptr noundef %31) #4
  %.not27.i = icmp eq i32 %32, 0
  br i1 %.not27.i, label %execute_test_handle_request.exit, label %33

33:                                               ; preds = %30
  %34 = tail call i32 @strcmp(ptr noundef nonnull dereferenceable(1) %31, ptr noundef nonnull dereferenceable(12) @.str.23) #5
  %35 = tail call i32 @test_int_eq(ptr noundef nonnull @.str.14, i32 noundef 81, ptr noundef nonnull @.str.29, ptr noundef nonnull @.str.30, i32 noundef %34, i32 noundef 0) #4
  %.not28.i = icmp eq i32 %35, 0
  br i1 %.not28.i, label %execute_test_handle_request.exit, label %36

36:                                               ; preds = %33
  %37 = tail call i32 @OSSL_CMP_SRV_CTX_set_send_unprotected_errors(ptr noundef %11, i32 noundef 0) #4
  %38 = icmp ne i32 %37, 0
  %39 = zext i1 %38 to i32
  %40 = tail call i32 @test_true(ptr noundef nonnull @.str.14, i32 noundef 84, ptr noundef nonnull @.str.31, i32 noundef %39) #4
  %.not29.i = icmp eq i32 %40, 0
  br i1 %.not29.i, label %execute_test_handle_request.exit, label %41

41:                                               ; preds = %36
  %42 = tail call i32 @OSSL_CMP_SRV_CTX_set_accept_unprotected(ptr noundef %11, i32 noundef 0) #4
  %43 = icmp ne i32 %42, 0
  %44 = zext i1 %43 to i32
  %45 = tail call i32 @test_true(ptr noundef nonnull @.str.14, i32 noundef 85, ptr noundef nonnull @.str.32, i32 noundef %44) #4
  %.not30.i = icmp eq i32 %45, 0
  br i1 %.not30.i, label %execute_test_handle_request.exit, label %46

46:                                               ; preds = %41
  %47 = tail call i32 @OSSL_CMP_SRV_CTX_set_accept_raverified(ptr noundef %11, i32 noundef 1) #4
  %48 = icmp ne i32 %47, 0
  %49 = zext i1 %48 to i32
  %50 = tail call i32 @test_true(ptr noundef nonnull @.str.14, i32 noundef 86, ptr noundef nonnull @.str.33, i32 noundef %49) #4
  %.not31.i = icmp eq i32 %50, 0
  br i1 %.not31.i, label %execute_test_handle_request.exit, label %51

51:                                               ; preds = %46
  %52 = tail call i32 @OSSL_CMP_SRV_CTX_set_grant_implicit_confirm(ptr noundef %11, i32 noundef 1) #4
  %53 = icmp ne i32 %52, 0
  %54 = zext i1 %53 to i32
  %55 = tail call i32 @test_true(ptr noundef nonnull @.str.14, i32 noundef 87, ptr noundef nonnull @.str.34, i32 noundef %54) #4
  %.not32.i = icmp eq i32 %55, 0
  br i1 %.not32.i, label %execute_test_handle_request.exit, label %56

56:                                               ; preds = %51
  %57 = tail call ptr @OSSL_CMP_SRV_CTX_get0_cmp_ctx(ptr noundef %11) #4
  %58 = tail call i32 @test_ptr(ptr noundef nonnull @.str.14, i32 noundef 90, ptr noundef nonnull @.str.35, ptr noundef %57) #4
  %.not33.i = icmp eq i32 %58, 0
  br i1 %.not33.i, label %execute_test_handle_request.exit, label %59

59:                                               ; preds = %56
  %60 = tail call i32 @OSSL_CMP_CTX_set1_referenceValue(ptr noundef %57, ptr noundef nonnull @.str.36, i32 noundef 6) #4
  %.not34.i = icmp eq i32 %60, 0
  br i1 %.not34.i, label %execute_test_handle_request.exit, label %61

61:                                               ; preds = %59
  %62 = tail call i32 @OSSL_CMP_CTX_set1_secretValue(ptr noundef %57, ptr noundef nonnull @.str.37, i32 noundef 4) #4
  %.not35.i = icmp eq i32 %62, 0
  br i1 %.not35.i, label %execute_test_handle_request.exit, label %63

63:                                               ; preds = %61
  %64 = load ptr, ptr %9, align 8, !tbaa !19
  %65 = tail call ptr @OSSL_CMP_CTX_server_perform(ptr noundef %13, ptr noundef %64) #4
  %66 = tail call i32 @test_ptr(ptr noundef nonnull @.str.14, i32 noundef 97, ptr noundef nonnull @.str.38, ptr noundef %65) #4
  %.not36.i = icmp eq i32 %66, 0
  br i1 %.not36.i, label %execute_test_handle_request.exit, label %67

67:                                               ; preds = %63
  %68 = tail call i32 @OSSL_CMP_MSG_get_bodytype(ptr noundef %65) #4
  %69 = tail call i32 @test_int_eq(ptr noundef nonnull @.str.14, i32 noundef 99, ptr noundef nonnull @.str.39, ptr noundef nonnull @.str.40, i32 noundef %68, i32 noundef 23) #4
  %.not37.i = icmp eq i32 %69, 0
  br i1 %.not37.i, label %execute_test_handle_request.exit, label %70

70:                                               ; preds = %67
  %71 = getelementptr inbounds nuw i8, ptr %65, i64 8
  %72 = load ptr, ptr %71, align 8, !tbaa !21
  %73 = getelementptr inbounds nuw i8, ptr %72, i64 8
  %74 = load ptr, ptr %73, align 8, !tbaa !27
  %75 = tail call i32 @test_ptr(ptr noundef nonnull @.str.14, i32 noundef 100, ptr noundef nonnull @.str.41, ptr noundef %74) #4
  %.not38.i = icmp eq i32 %75, 0
  br i1 %.not38.i, label %execute_test_handle_request.exit, label %76

76:                                               ; preds = %70
  %77 = getelementptr inbounds nuw i8, ptr %74, i64 8
  %78 = load ptr, ptr %77, align 8, !tbaa !28
  %79 = tail call i64 @ASN1_INTEGER_get(ptr noundef %78) #4
  %80 = trunc i64 %79 to i32
  %81 = tail call i32 @test_int_eq(ptr noundef nonnull @.str.14, i32 noundef 102, ptr noundef nonnull @.str.42, ptr noundef nonnull @.str.43, i32 noundef %80, i32 noundef 486539366) #4
  %.not39.i = icmp ne i32 %81, 0
  %spec.select.i = zext i1 %.not39.i to i32
  br label %execute_test_handle_request.exit

execute_test_handle_request.exit:                 ; preds = %set_up.exit, %15, %20, %25, %30, %33, %36, %41, %46, %51, %56, %59, %61, %63, %67, %70, %76
  %.023.i = phi ptr [ %65, %70 ], [ %65, %67 ], [ %65, %63 ], [ null, %61 ], [ null, %59 ], [ null, %56 ], [ null, %51 ], [ null, %46 ], [ null, %41 ], [ null, %36 ], [ null, %33 ], [ null, %30 ], [ null, %25 ], [ null, %20 ], [ null, %15 ], [ null, %set_up.exit ], [ %65, %76 ]
  %.0.i10 = phi i32 [ 0, %70 ], [ 0, %67 ], [ 0, %63 ], [ 0, %61 ], [ 0, %59 ], [ 0, %56 ], [ 0, %51 ], [ 0, %46 ], [ 0, %41 ], [ 0, %36 ], [ 0, %33 ], [ 0, %30 ], [ 0, %25 ], [ 0, %20 ], [ 0, %15 ], [ 0, %set_up.exit ], [ %spec.select.i, %76 ]
  tail call void @OSSL_CMP_MSG_free(ptr noundef %.023.i) #4
  tail call void @OSSL_CMP_CTX_free(ptr noundef %13) #4
  br label %set_up.exit.thread.sink.split

set_up.exit.thread.sink.split:                    ; preds = %3, %execute_test_handle_request.exit
  %.07.ph = phi i32 [ %.0.i10, %execute_test_handle_request.exit ], [ 0, %3 ]
  %82 = load ptr, ptr %6, align 8, !tbaa !18
  tail call void @OSSL_CMP_SRV_CTX_free(ptr noundef %82) #4
  tail call void @CRYPTO_free(ptr noundef nonnull %1, ptr noundef nonnull @.str.14, i32 noundef 28) #4
  br label %set_up.exit.thread

set_up.exit.thread:                               ; preds = %set_up.exit.thread.sink.split, %0
  %.07 = phi i32 [ 0, %0 ], [ %.07.ph, %set_up.exit.thread.sink.split ]
  ret i32 %.07
}